(ioptparse
Values
p0
(dp1
S'autoflatten'
p2
I01
sS'filetype'
p3
S'kicad_module'
p4
sS'ids'
p5
(lp6
S'g4373-1'
p7
aS'g4367-3'
p8
asS'crop'
p9
I00
sS'debug'
p10
I00
sS'openkicad'
p11
I00
sS'openfactory'
p12
I00
sS'threshold'
p13
F128.0
sS'path'
p14
S'/home/dusjagr/Documents/8bit_Mixtape/ESPTINY86_MixtapePCB/KiCAD/ESPTINY86_MixtapePCB.pretty'
p15
sS'dpi'
p16
F1200.0
sb.